(dp1
S'YaHei Consolas Hybrid'
p2
cnumpy.core.multiarray
_reconstruct
p3
(cnumpy
ndarray
p4
(I0
tS'b'
tRp5
(I1
(I2
tcnumpy
dtype
p6
(S'f8'
I0
I1
tRp7
(I3
S'<'
NNNI-1
I-1
I0
tbI00
S'\xaf\x8c!\xdf\x82\x1d\xf5?\xf5\x9f\xef\xc9\x96Q\xf0?'
tbs.